target datalayout = "e-m:e-p270:32:32-p271:32:32-p272:64:64-i64:64-i128:128-f80:128-n8:16:32:64-S128"
target triple = "x86_64-pc-linux-gnu"

%struct.MvcCoverStruct = type { i32, i32, i32, %struct.MvcListStruct, ptr, i32, ptr, ptr, ptr }
%struct.MvcListStruct = type { ptr, ptr, i32 }
%struct.MvcCubeStruct = type { ptr, i32, i32, [1 x i32] }

; Function Attrs: nounwind uwtable
define void @Mvc_CoverMakeEmpty(ptr noundef %0) #0 {
  %2 = alloca ptr, align 8
  %3 = alloca ptr, align 8
  %4 = alloca ptr, align 8
  store ptr %0, ptr %2, align 8, !tbaa !3
  call void @llvm.lifetime.start.p0(i64 8, ptr %3) #4
  call void @llvm.lifetime.start.p0(i64 8, ptr %4) #4
  %5 = load ptr, ptr %2, align 8, !tbaa !3
  %6 = getelementptr inbounds nuw %struct.MvcCoverStruct, ptr %5, i32 0, i32 3
  %7 = getelementptr inbounds nuw %struct.MvcListStruct, ptr %6, i32 0, i32 0
  %8 = load ptr, ptr %7, align 8, !tbaa !18
  store ptr %8, ptr %3, align 8, !tbaa !26
  %9 = load ptr, ptr %3, align 8, !tbaa !26
  %10 = icmp ne ptr %9, null
  br i1 %10, label %11, label %15

11:                                               ; preds = %1
  %12 = load ptr, ptr %3, align 8, !tbaa !26
  %13 = getelementptr inbounds nuw %struct.MvcCubeStruct, ptr %12, i32 0, i32 0
  %14 = load ptr, ptr %13, align 8, !tbaa !30
  br label %16

15:                                               ; preds = %1
  br label %16

16:                                               ; preds = %15, %11
  %17 = phi ptr [ %14, %11 ], [ null, %15 ]
  store ptr %17, ptr %4, align 8, !tbaa !26
  br label %18

18:                                               ; preds = %33, %16
  %19 = load ptr, ptr %3, align 8, !tbaa !26
  %20 = icmp ne ptr %19, null
  br i1 %20, label %21, label %35

21:                                               ; preds = %18
  %22 = load ptr, ptr %2, align 8, !tbaa !3
  %23 = load ptr, ptr %3, align 8, !tbaa !26
  call void @Mvc_CubeFree(ptr noundef %22, ptr noundef %23)
  br label %24

24:                                               ; preds = %21
  %25 = load ptr, ptr %4, align 8, !tbaa !26
  store ptr %25, ptr %3, align 8, !tbaa !26
  %26 = load ptr, ptr %3, align 8, !tbaa !26
  %27 = icmp ne ptr %26, null
  br i1 %27, label %28, label %32

28:                                               ; preds = %24
  %29 = load ptr, ptr %3, align 8, !tbaa !26
  %30 = getelementptr inbounds nuw %struct.MvcCubeStruct, ptr %29, i32 0, i32 0
  %31 = load ptr, ptr %30, align 8, !tbaa !30
  br label %33

32:                                               ; preds = %24
  br label %33

33:                                               ; preds = %32, %28
  %34 = phi ptr [ %31, %28 ], [ null, %32 ]
  store ptr %34, ptr %4, align 8, !tbaa !26
  br label %18, !llvm.loop !32

35:                                               ; preds = %18
  %36 = load ptr, ptr %2, align 8, !tbaa !3
  %37 = getelementptr inbounds nuw %struct.MvcCoverStruct, ptr %36, i32 0, i32 3
  %38 = getelementptr inbounds nuw %struct.MvcListStruct, ptr %37, i32 0, i32 2
  store i32 0, ptr %38, align 8, !tbaa !17
  %39 = load ptr, ptr %2, align 8, !tbaa !3
  %40 = getelementptr inbounds nuw %struct.MvcCoverStruct, ptr %39, i32 0, i32 3
  %41 = getelementptr inbounds nuw %struct.MvcListStruct, ptr %40, i32 0, i32 0
  store ptr null, ptr %41, align 8, !tbaa !18
  %42 = load ptr, ptr %2, align 8, !tbaa !3
  %43 = getelementptr inbounds nuw %struct.MvcCoverStruct, ptr %42, i32 0, i32 3
  %44 = getelementptr inbounds nuw %struct.MvcListStruct, ptr %43, i32 0, i32 1
  store ptr null, ptr %44, align 8, !tbaa !19
  call void @llvm.lifetime.end.p0(i64 8, ptr %4) #4
  call void @llvm.lifetime.end.p0(i64 8, ptr %3) #4
  ret void
}

; Function Attrs: nounwind uwtable
define void @Mvc_CoverMakeTautology(ptr noundef %0) #0 {
  %2 = alloca ptr, align 8
  %3 = alloca ptr, align 8
  %4 = alloca i32, align 4
  %5 = alloca ptr, align 8
  store ptr %0, ptr %2, align 8, !tbaa !3
  call void @llvm.lifetime.start.p0(i64 8, ptr %3) #4
  %6 = load ptr, ptr %2, align 8, !tbaa !3
  call void @Mvc_CoverMakeEmpty(ptr noundef %6)
  %7 = load ptr, ptr %2, align 8, !tbaa !3
  %8 = call ptr @Mvc_CubeAlloc(ptr noundef %7)
  store ptr %8, ptr %3, align 8, !tbaa !26
  %9 = load ptr, ptr %3, align 8, !tbaa !26
  %10 = getelementptr inbounds nuw %struct.MvcCubeStruct, ptr %9, i32 0, i32 1
  %11 = load i32, ptr %10, align 8
  %12 = and i32 %11, 16777215
  %13 = icmp eq i32 %12, 0
  br i1 %13, label %14, label %24

14:                                               ; preds = %1
  %15 = load ptr, ptr %3, align 8, !tbaa !26
  %16 = getelementptr inbounds nuw %struct.MvcCubeStruct, ptr %15, i32 0, i32 1
  %17 = load i32, ptr %16, align 8
  %18 = lshr i32 %17, 24
  %19 = and i32 %18, 63
  %20 = lshr i32 -1, %19
  %21 = load ptr, ptr %3, align 8, !tbaa !26
  %22 = getelementptr inbounds nuw %struct.MvcCubeStruct, ptr %21, i32 0, i32 3
  %23 = getelementptr inbounds [1 x i32], ptr %22, i64 0, i64 0
  store i32 %20, ptr %23, align 8, !tbaa !25
  br label %77

24:                                               ; preds = %1
  %25 = load ptr, ptr %3, align 8, !tbaa !26
  %26 = getelementptr inbounds nuw %struct.MvcCubeStruct, ptr %25, i32 0, i32 1
  %27 = load i32, ptr %26, align 8
  %28 = and i32 %27, 16777215
  %29 = icmp eq i32 %28, 1
  br i1 %29, label %30, label %43

30:                                               ; preds = %24
  %31 = load ptr, ptr %3, align 8, !tbaa !26
  %32 = getelementptr inbounds nuw %struct.MvcCubeStruct, ptr %31, i32 0, i32 3
  %33 = getelementptr inbounds [1 x i32], ptr %32, i64 0, i64 0
  store i32 -1, ptr %33, align 8, !tbaa !25
  %34 = load ptr, ptr %3, align 8, !tbaa !26
  %35 = getelementptr inbounds nuw %struct.MvcCubeStruct, ptr %34, i32 0, i32 1
  %36 = load i32, ptr %35, align 8
  %37 = lshr i32 %36, 24
  %38 = and i32 %37, 63
  %39 = lshr i32 -1, %38
  %40 = load ptr, ptr %3, align 8, !tbaa !26
  %41 = getelementptr inbounds nuw %struct.MvcCubeStruct, ptr %40, i32 0, i32 3
  %42 = getelementptr inbounds [1 x i32], ptr %41, i64 0, i64 1
  store i32 %39, ptr %42, align 4, !tbaa !25
  br label %76

43:                                               ; preds = %24
  call void @llvm.lifetime.start.p0(i64 4, ptr %4) #4
  %44 = load ptr, ptr %3, align 8, !tbaa !26
  %45 = getelementptr inbounds nuw %struct.MvcCubeStruct, ptr %44, i32 0, i32 1
  %46 = load i32, ptr %45, align 8
  %47 = lshr i32 %46, 24
  %48 = and i32 %47, 63
  %49 = lshr i32 -1, %48
  %50 = load ptr, ptr %3, align 8, !tbaa !26
  %51 = getelementptr inbounds nuw %struct.MvcCubeStruct, ptr %50, i32 0, i32 3
  %52 = load ptr, ptr %3, align 8, !tbaa !26
  %53 = getelementptr inbounds nuw %struct.MvcCubeStruct, ptr %52, i32 0, i32 1
  %54 = load i32, ptr %53, align 8
  %55 = and i32 %54, 16777215
  %56 = zext i32 %55 to i64
  %57 = getelementptr inbounds nuw [1 x i32], ptr %51, i64 0, i64 %56
  store i32 %49, ptr %57, align 4, !tbaa !25
  %58 = load ptr, ptr %3, align 8, !tbaa !26
  %59 = getelementptr inbounds nuw %struct.MvcCubeStruct, ptr %58, i32 0, i32 1
  %60 = load i32, ptr %59, align 8
  %61 = and i32 %60, 16777215
  %62 = sub nsw i32 %61, 1
  store i32 %62, ptr %4, align 4, !tbaa !25
  br label %63

63:                                               ; preds = %72, %43
  %64 = load i32, ptr %4, align 4, !tbaa !25
  %65 = icmp sge i32 %64, 0
  br i1 %65, label %66, label %75

66:                                               ; preds = %63
  %67 = load ptr, ptr %3, align 8, !tbaa !26
  %68 = getelementptr inbounds nuw %struct.MvcCubeStruct, ptr %67, i32 0, i32 3
  %69 = load i32, ptr %4, align 4, !tbaa !25
  %70 = sext i32 %69 to i64
  %71 = getelementptr inbounds [1 x i32], ptr %68, i64 0, i64 %70
  store i32 -1, ptr %71, align 4, !tbaa !25
  br label %72

72:                                               ; preds = %66
  %73 = load i32, ptr %4, align 4, !tbaa !25
  %74 = add nsw i32 %73, -1
  store i32 %74, ptr %4, align 4, !tbaa !25
  br label %63, !llvm.loop !33

75:                                               ; preds = %63
  call void @llvm.lifetime.end.p0(i64 4, ptr %4) #4
  br label %76

76:                                               ; preds = %75, %30
  br label %77

77:                                               ; preds = %76, %14
  call void @llvm.lifetime.start.p0(i64 8, ptr %5) #4
  %78 = load ptr, ptr %2, align 8, !tbaa !3
  %79 = getelementptr inbounds nuw %struct.MvcCoverStruct, ptr %78, i32 0, i32 3
  store ptr %79, ptr %5, align 8, !tbaa !20
  %80 = load ptr, ptr %5, align 8, !tbaa !20
  %81 = getelementptr inbounds nuw %struct.MvcListStruct, ptr %80, i32 0, i32 0
  %82 = load ptr, ptr %81, align 8, !tbaa !23
  %83 = icmp eq ptr %82, null
  br i1 %83, label %84, label %88

84:                                               ; preds = %77
  %85 = load ptr, ptr %3, align 8, !tbaa !26
  %86 = load ptr, ptr %5, align 8, !tbaa !20
  %87 = getelementptr inbounds nuw %struct.MvcListStruct, ptr %86, i32 0, i32 0
  store ptr %85, ptr %87, align 8, !tbaa !23
  br label %94

88:                                               ; preds = %77
  %89 = load ptr, ptr %3, align 8, !tbaa !26
  %90 = load ptr, ptr %5, align 8, !tbaa !20
  %91 = getelementptr inbounds nuw %struct.MvcListStruct, ptr %90, i32 0, i32 1
  %92 = load ptr, ptr %91, align 8, !tbaa !24
  %93 = getelementptr inbounds nuw %struct.MvcCubeStruct, ptr %92, i32 0, i32 0
  store ptr %89, ptr %93, align 8, !tbaa !30
  br label %94

94:                                               ; preds = %88, %84
  %95 = load ptr, ptr %3, align 8, !tbaa !26
  %96 = load ptr, ptr %5, align 8, !tbaa !20
  %97 = getelementptr inbounds nuw %struct.MvcListStruct, ptr %96, i32 0, i32 1
  store ptr %95, ptr %97, align 8, !tbaa !24
  %98 = load ptr, ptr %3, align 8, !tbaa !26
  %99 = getelementptr inbounds nuw %struct.MvcCubeStruct, ptr %98, i32 0, i32 0
  store ptr null, ptr %99, align 8, !tbaa !30
  %100 = load ptr, ptr %5, align 8, !tbaa !20
  %101 = getelementptr inbounds nuw %struct.MvcListStruct, ptr %100, i32 0, i32 2
  %102 = load i32, ptr %101, align 8, !tbaa !22
  %103 = add nsw i32 %102, 1
  store i32 %103, ptr %101, align 8, !tbaa !22
  call void @llvm.lifetime.end.p0(i64 8, ptr %5) #4
  call void @llvm.lifetime.end.p0(i64 8, ptr %3) #4
  ret void
}