; Function Attrs: nounwind uwtable
define void @Mvc_CoverMakeTautology(ptr noundef %0) local_unnamed_addr #7 {
  %2 = getelementptr inbounds nuw i8, ptr %0, i64 16
  %3 = load ptr, ptr %2, align 8, !tbaa !16
  %.not.i = icmp eq ptr %3, null
  br i1 %.not.i, label %Mvc_CoverMakeEmpty.exit, label %.lr.ph.i

.lr.ph.i:                                         ; preds = %1, %.lr.ph.i
  %.018.sink.i = phi ptr [ %4, %.lr.ph.i ], [ %3, %1 ]
  %4 = load ptr, ptr %.018.sink.i, align 8, !tbaa !26
  tail call void @Mvc_CubeFree(ptr noundef %0, ptr noundef nonnull %.018.sink.i) #10
  %.not15.i = icmp eq ptr %4, null
  br i1 %.not15.i, label %Mvc_CoverMakeEmpty.exit, label %.lr.ph.i, !llvm.loop !28

Mvc_CoverMakeEmpty.exit:                          ; preds = %.lr.ph.i, %1
  tail call void @llvm.memset.p0.i64(ptr noundef nonnull align 8 dereferenceable(20) %2, i8 0, i64 20, i1 false)
  %5 = tail call ptr @Mvc_CubeAlloc(ptr noundef %0) #10
  %6 = getelementptr inbounds nuw i8, ptr %5, i64 8
  %7 = load i32, ptr %6, align 8
  %8 = and i32 %7, 16777215
  switch i32 %8, label %.lr.ph.preheader [
    i32 0, label %9
    i32 1, label %14
  ]

9:                                                ; preds = %Mvc_CoverMakeEmpty.exit
  %10 = lshr exact i32 %7, 24
  %11 = and i32 %10, 63
  %12 = lshr i32 -1, %11
  %13 = getelementptr inbounds nuw i8, ptr %5, i64 16
  store i32 %12, ptr %13, align 8, !tbaa !23
  br label %.loopexit

14:                                               ; preds = %Mvc_CoverMakeEmpty.exit
  %15 = getelementptr inbounds nuw i8, ptr %5, i64 16
  store i32 -1, ptr %15, align 8, !tbaa !23
  %16 = lshr i32 %7, 24
  %17 = and i32 %16, 63
  %18 = lshr i32 -1, %17
  %19 = getelementptr inbounds nuw i8, ptr %5, i64 20
  store i32 %18, ptr %19, align 4, !tbaa !23
  br label %.loopexit

.lr.ph.preheader:                                 ; preds = %Mvc_CoverMakeEmpty.exit
  %20 = lshr i32 %7, 24
  %21 = and i32 %20, 63
  %22 = lshr i32 -1, %21
  %23 = getelementptr inbounds nuw i8, ptr %5, i64 16
  %24 = zext nneg i32 %8 to i64
  %25 = getelementptr inbounds nuw [1 x i32], ptr %23, i64 0, i64 %24
  store i32 %22, ptr %25, align 4, !tbaa !23
  %26 = shl i32 %7, 2
  %27 = and i32 %26, 67108860
  %28 = zext nneg i32 %27 to i64
  tail call void @llvm.memset.p0.i64(ptr nonnull align 4 %23, i8 -1, i64 %28, i1 false), !tbaa !23
  br label %.loopexit

.loopexit:                                        ; preds = %.lr.ph.preheader, %14, %9
  %29 = load ptr, ptr %2, align 8, !tbaa !19
  %30 = icmp eq ptr %29, null
  br i1 %30, label %31, label %32

31:                                               ; preds = %.loopexit
  store ptr %5, ptr %2, align 8, !tbaa !19
  br label %35

32:                                               ; preds = %.loopexit
  %33 = getelementptr inbounds nuw i8, ptr %0, i64 24
  %34 = load ptr, ptr %33, align 8, !tbaa !20
  store ptr %5, ptr %34, align 8, !tbaa !26
  br label %35

35:                                               ; preds = %32, %31
  %36 = getelementptr inbounds nuw i8, ptr %0, i64 24
  store ptr %5, ptr %36, align 8, !tbaa !20
  store ptr null, ptr %5, align 8, !tbaa !26
  %37 = getelementptr inbounds nuw i8, ptr %0, i64 32
  %38 = load i32, ptr %37, align 8, !tbaa !18
  %39 = add nsw i32 %38, 1
  store i32 %39, ptr %37, align 8, !tbaa !18
  ret void
}